; Function Attrs: nounwind sspstrong uwtable
define internal i64 @range_enum_reverse_size(i64 noundef %0, i64 %1, i64 %2) #0 {
  %4 = inttoptr i64 %0 to ptr
  %5 = getelementptr inbounds nuw i8, ptr %4, i64 16
  %6 = load i64, ptr %5, align 8, !tbaa !13
  %7 = load i64, ptr %4, align 8, !tbaa !11
  %8 = and i64 %7, 1040384
  %.not.i.i.i.i = icmp eq i64 %8, 0
  br i1 %.not.i.i.i.i, label %9, label %RANGE_END.exit.i

9:                                                ; preds = %3
  %10 = getelementptr inbounds nuw i8, ptr %4, i64 24
  %11 = load ptr, ptr %10, align 8, !tbaa !13
  br label %RANGE_END.exit.i

RANGE_END.exit.i:                                 ; preds = %9, %3
  %.0.i.i.i.i = phi ptr [ %11, %9 ], [ %5, %3 ]
  %12 = getelementptr i8, ptr %.0.i.i.i.i, i64 8
  %13 = load i64, ptr %12, align 8, !tbaa !7
  %14 = icmp eq i64 %13, 4
  br i1 %14, label %15, label %18

15:                                               ; preds = %RANGE_END.exit.i
  %16 = load i64, ptr @rb_eTypeError, align 8, !tbaa !7
  %17 = tail call ptr @rb_obj_classname(i64 noundef 4) #13
  tail call void (i64, ptr, ...) @rb_raise(i64 noundef %16, ptr noundef nonnull @.str.37, ptr noundef %17) #14
  unreachable

18:                                               ; preds = %RANGE_END.exit.i
  %19 = and i64 %6, 1
  %.not.i.i = icmp eq i64 %19, 0
  br i1 %.not.i.i, label %20, label %rb_integer_type_p.exit.thread.i

20:                                               ; preds = %18
  %21 = icmp eq i64 %6, 0
  %22 = and i64 %6, 6
  %23 = icmp ne i64 %22, 0
  %24 = or i1 %21, %23
  br i1 %24, label %rb_integer_type_p.exit.thread24.i, label %rb_integer_type_p.exit.i

rb_integer_type_p.exit.i:                         ; preds = %20
  %25 = inttoptr i64 %6 to ptr
  %26 = load i64, ptr %25, align 8, !tbaa !11
  %27 = and i64 %26, 31
  %28 = icmp eq i64 %27, 10
  br i1 %28, label %rb_integer_type_p.exit.thread.i, label %rb_integer_type_p.exit.thread24.i

rb_integer_type_p.exit.thread.i:                  ; preds = %rb_integer_type_p.exit.i, %18
  %29 = load i64, ptr @rb_cNumeric, align 8, !tbaa !7
  %30 = tail call i64 @rb_obj_is_kind_of(i64 noundef %13, i64 noundef %29) #13
  %.not16.i = icmp eq i64 %30, 0
  br i1 %.not16.i, label %43, label %31

31:                                               ; preds = %rb_integer_type_p.exit.thread.i
  %32 = load i64, ptr %4, align 8, !tbaa !11
  %33 = and i64 %32, 1040384
  %.not.i.i.i17.i = icmp eq i64 %33, 0
  br i1 %.not.i.i.i17.i, label %34, label %RANGE_EXCL.exit.i

34:                                               ; preds = %31
  %35 = getelementptr inbounds nuw i8, ptr %4, i64 24
  %36 = load ptr, ptr %35, align 8, !tbaa !13
  br label %RANGE_EXCL.exit.i

RANGE_EXCL.exit.i:                                ; preds = %34, %31
  %.0.i.i.i18.i = phi ptr [ %36, %34 ], [ %5, %31 ]
  %37 = getelementptr i8, ptr %.0.i.i.i18.i, i64 16
  %38 = load i64, ptr %37, align 8, !tbaa !7
  %39 = and i64 %38, -5
  %40 = icmp ne i64 %39, 0
  %41 = zext i1 %40 to i32
  %42 = tail call i64 @ruby_num_interval_step_size(i64 noundef %6, i64 noundef %13, i64 noundef 3, i32 noundef %41) #13
  br label %range_reverse_size.exit

43:                                               ; preds = %rb_integer_type_p.exit.thread.i
  %44 = load i64, ptr @rb_eTypeError, align 8, !tbaa !7
  %45 = tail call ptr @rb_obj_classname(i64 noundef %13) #13
  tail call void (i64, ptr, ...) @rb_raise(i64 noundef %44, ptr noundef nonnull @.str.37, ptr noundef %45) #14
  unreachable

rb_integer_type_p.exit.thread24.i:                ; preds = %rb_integer_type_p.exit.i, %20
  %46 = icmp eq i64 %6, 4
  br i1 %46, label %47, label %61

47:                                               ; preds = %rb_integer_type_p.exit.thread24.i
  %48 = and i64 %13, 1
  %.not.i19.i = icmp eq i64 %48, 0
  br i1 %.not.i19.i, label %49, label %rb_integer_type_p.exit21.thread.i

49:                                               ; preds = %47
  %50 = icmp eq i64 %13, 0
  %51 = and i64 %13, 6
  %52 = icmp ne i64 %51, 0
  %53 = or i1 %50, %52
  br i1 %53, label %rb_integer_type_p.exit21.thread27.i, label %rb_integer_type_p.exit21.i

rb_integer_type_p.exit21.i:                       ; preds = %49
  %54 = inttoptr i64 %13 to ptr
  %55 = load i64, ptr %54, align 8, !tbaa !11
  %56 = and i64 %55, 31
  %57 = icmp eq i64 %56, 10
  br i1 %57, label %rb_integer_type_p.exit21.thread.i, label %rb_integer_type_p.exit21.thread27.i

rb_integer_type_p.exit21.thread.i:                ; preds = %rb_integer_type_p.exit21.i, %47
  %58 = tail call i64 @rb_float_new_in_heap(double noundef 0x7FF0000000000000) #13
  br label %range_reverse_size.exit

rb_integer_type_p.exit21.thread27.i:              ; preds = %rb_integer_type_p.exit21.i, %49
  %59 = load i64, ptr @rb_eTypeError, align 8, !tbaa !7
  %60 = tail call ptr @rb_obj_classname(i64 noundef %13) #13
  tail call void (i64, ptr, ...) @rb_raise(i64 noundef %59, ptr noundef nonnull @.str.37, ptr noundef %60) #14
  unreachable

61:                                               ; preds = %rb_integer_type_p.exit.thread24.i
  %62 = tail call i32 @rb_respond_to(i64 noundef %6, i64 noundef 3057) #13
  %.not.i = icmp eq i32 %62, 0
  br i1 %.not.i, label %63, label %range_reverse_size.exit

63:                                               ; preds = %61
  %64 = load i64, ptr @rb_eTypeError, align 8, !tbaa !7
  %65 = tail call ptr @rb_obj_classname(i64 noundef %13) #13
  tail call void (i64, ptr, ...) @rb_raise(i64 noundef %64, ptr noundef nonnull @.str.37, ptr noundef %65) #14
  unreachable

range_reverse_size.exit:                          ; preds = %RANGE_EXCL.exit.i, %rb_integer_type_p.exit21.thread.i, %61
  %.0.i = phi i64 [ %42, %RANGE_EXCL.exit.i ], [ %58, %rb_integer_type_p.exit21.thread.i ], [ 4, %61 ]
  ret i64 %.0.i
}